target datalayout = "e-m:e-p270:32:32-p271:32:32-p272:64:64-i64:64-i128:128-f80:128-n8:16:32:64-S128"
target triple = "x86_64-pc-linux-gnu"

%struct.Scheduler = type { ptr, ptr, i32, ptr, i32, i32, %union.pthread_mutex_t, i32, i32, %union.pthread_mutex_t, %union.pthread_cond_t, ptr, i32, ptr, i32, ptr, i32, ptr, i32, ptr, i32, i32, i32, %union.pthread_mutex_t, i64 }
%union.pthread_cond_t = type { %struct.__pthread_cond_s }
%struct.__pthread_cond_s = type { %union.__atomic_wide_counter, %union.__atomic_wide_counter, [2 x i32], [2 x i32], i32, i32, [2 x i32] }
%union.__atomic_wide_counter = type { i64 }
%union.pthread_mutex_t = type { %struct.__pthread_mutex_s }
%struct.__pthread_mutex_s = type { i32, i32, i32, i32, i32, i16, i16, %struct.__pthread_internal_list }
%struct.__pthread_internal_list = type { ptr, ptr }
%struct.SchTask = type { ptr, %struct.SchedulerNode, ptr, ptr, i64, i32 }
%struct.SchedulerNode = type { i32, i32, i32 }
%struct.SchDec = type { ptr, %struct.SchedulerNode, ptr, i32, %struct.SchTask, ptr, ptr, i32, ptr }

@.str = private unnamed_addr constant [30 x i8] c"Assertion %s failed at %s:%d\0A\00", align 1
@.str.2 = private unnamed_addr constant [23 x i8] c"fftools/ffmpeg_sched.c\00", align 1
@.str.4 = private unnamed_addr constant [22 x i8] c"dec_idx < sch->nb_dec\00", align 1

; Function Attrs: nounwind uwtable
define i32 @sch_add_dec_output(ptr noundef %0, i32 noundef %1) #0 {
  %3 = alloca i32, align 4
  %4 = alloca ptr, align 8
  %5 = alloca i32, align 4
  %6 = alloca ptr, align 8
  %7 = alloca i32, align 4
  %8 = alloca i32, align 4
  store ptr %0, ptr %4, align 8, !tbaa !10
  store i32 %1, ptr %5, align 4, !tbaa !12
  call void @llvm.lifetime.start.p0(i64 8, ptr %6) #9
  call void @llvm.lifetime.start.p0(i64 4, ptr %7) #9
  br label %9

9:                                                ; preds = %2
  %10 = load i32, ptr %5, align 4, !tbaa !12
  %11 = load ptr, ptr %4, align 8, !tbaa !10
  %12 = getelementptr inbounds nuw %struct.Scheduler, ptr %11, i32 0, i32 12
  %13 = load i32, ptr %12, align 8, !tbaa !56
  %14 = icmp ult i32 %10, %13
  br i1 %14, label %16, label %15

15:                                               ; preds = %9
  call void (ptr, i32, ptr, ...) @av_log(ptr noundef null, i32 noundef 0, ptr noundef @.str, ptr noundef @.str.4, ptr noundef @.str.2, i32 noundef 724)
  call void @abort() #10
  unreachable

16:                                               ; preds = %9
  br label %17

17:                                               ; preds = %16
  br label %18

18:                                               ; preds = %17
  %19 = load ptr, ptr %4, align 8, !tbaa !10
  %20 = getelementptr inbounds nuw %struct.Scheduler, ptr %19, i32 0, i32 11
  %21 = load ptr, ptr %20, align 8, !tbaa !57
  %22 = load i32, ptr %5, align 4, !tbaa !12
  %23 = zext i32 %22 to i64
  %24 = getelementptr inbounds nuw %struct.SchDec, ptr %21, i64 %23
  store ptr %24, ptr %6, align 8, !tbaa !58
  %25 = load ptr, ptr %6, align 8, !tbaa !58
  %26 = getelementptr inbounds nuw %struct.SchDec, ptr %25, i32 0, i32 2
  %27 = load ptr, ptr %6, align 8, !tbaa !58
  %28 = getelementptr inbounds nuw %struct.SchDec, ptr %27, i32 0, i32 3
  %29 = load ptr, ptr %6, align 8, !tbaa !58
  %30 = getelementptr inbounds nuw %struct.SchDec, ptr %29, i32 0, i32 3
  %31 = load i32, ptr %30, align 8, !tbaa !59
  %32 = add i32 %31, 1
  %33 = call i32 @grow_array(ptr noundef %26, i32 noundef 24, ptr noundef %28, i32 noundef %32)
  store i32 %33, ptr %7, align 4, !tbaa !12
  %34 = load i32, ptr %7, align 4, !tbaa !12
  %35 = icmp slt i32 %34, 0
  br i1 %35, label %36, label %38

36:                                               ; preds = %18
  %37 = load i32, ptr %7, align 4, !tbaa !12
  store i32 %37, ptr %3, align 4
  store i32 1, ptr %8, align 4
  br label %43

38:                                               ; preds = %18
  %39 = load ptr, ptr %6, align 8, !tbaa !58
  %40 = getelementptr inbounds nuw %struct.SchDec, ptr %39, i32 0, i32 3
  %41 = load i32, ptr %40, align 8, !tbaa !59
  %42 = sub i32 %41, 1
  store i32 %42, ptr %3, align 4
  store i32 1, ptr %8, align 4
  br label %43

43:                                               ; preds = %38, %36
  call void @llvm.lifetime.end.p0(i64 4, ptr %7) #9
  call void @llvm.lifetime.end.p0(i64 8, ptr %6) #9
  %44 = load i32, ptr %3, align 4
  ret i32 %44
}