; Function Attrs: nounwind uwtable
define i32 @sch_add_dec_output(ptr noundef readonly captures(none) %0, i32 noundef %1) local_unnamed_addr #0 {
  %3 = getelementptr inbounds nuw i8, ptr %0, i64 184
  %4 = load i32, ptr %3, align 8, !tbaa !34
  %5 = icmp ult i32 %1, %4
  br i1 %5, label %7, label %6

6:                                                ; preds = %2
  tail call void (ptr, i32, ptr, ...) @av_log(ptr noundef null, i32 noundef 0, ptr noundef nonnull @.str, ptr noundef nonnull @.str.4, ptr noundef nonnull @.str.2, i32 noundef 724) #9
  tail call void @abort() #10
  unreachable

7:                                                ; preds = %2
  %8 = getelementptr inbounds nuw i8, ptr %0, i64 176
  %9 = load ptr, ptr %8, align 8, !tbaa !50
  %10 = zext i32 %1 to i64
  %11 = getelementptr inbounds nuw %struct.SchDec, ptr %9, i64 %10
  %12 = getelementptr inbounds nuw i8, ptr %11, i64 24
  %13 = getelementptr inbounds nuw i8, ptr %11, i64 32
  %14 = load i32, ptr %13, align 8, !tbaa !51
  %15 = add i32 %14, 1
  %16 = tail call i32 @grow_array(ptr noundef nonnull %12, i32 noundef 24, ptr noundef nonnull %13, i32 noundef %15) #9
  %17 = icmp slt i32 %16, 0
  br i1 %17, label %21, label %18

18:                                               ; preds = %7
  %19 = load i32, ptr %13, align 8, !tbaa !51
  %20 = add i32 %19, -1
  br label %21

21:                                               ; preds = %7, %18
  %.0 = phi i32 [ %20, %18 ], [ %16, %7 ]
  ret i32 %.0
}